(ivnspliter.sentence_spliter
SentenceSpliter
p1
(dp2
S'multi_newline_regex'
p3
cre
_compile
p4
(S'\n+'
p5
I0
tRp6
sS'model_path'
p7
S'/home/nda/Workspace/Topica/pipy/vnspliter/models/model.dump'
p8
sS'classifier'
p9
ccopy_reg
_reconstructor
p10
(csklearn.linear_model.logistic
LogisticRegression
p11
c__builtin__
object
p12
NtRp13
(dp14
S'warm_start'
p15
I00
sS'C'
F1
sS'n_jobs'
p16
I1
sS'verbose'
p17
I00
sS'fit_intercept'
p18
I01
sS'solver'
p19
S'liblinear'
p20
sS'classes_'
p21
cnumpy.core.multiarray
_reconstruct
p22
(cnumpy
ndarray
p23
(I0
tS'b'
tRp24
(I1
(I2
tcnumpy
dtype
p25
(S'i8'
I0
I1
tRp26
(I3
S'<'
NNNI-1
I-1
I0
tbI00
S'\x00\x00\x00\x00\x00\x00\x00\x00\x01\x00\x00\x00\x00\x00\x00\x00'
tbsS'n_iter_'
p27
g22
(g23
(I0
tS'b'
tRp28
(I1
(I1
tg25
(S'i4'
I0
I1
tRp29
(I3
S'<'
NNNI-1
I-1
I0
tbI00
S'\x0b\x00\x00\x00'
tbsS'intercept_scaling'
p30
I1
sS'penalty'
p31
S'l2'
p32
sS'multi_class'
p33
S'ovr'
p34
sS'random_state'
p35
NsS'_sklearn_version'
p36
S'0.19.0'
p37
sS'dual'
p38
I00
sS'tol'
p39
F0.0001
sS'coef_'
p40
g22
(g23
(I0
tS'b'
tRp41
(I1
(I1
I19
tg25
(S'f8'
I0
I1
tRp42
(I3
S'<'
NNNI-1
I-1
I0
tbI00
S'^0\x8e\xb8W\xfdD\xbfg\xe7\x99\x98\x1e\x1e)@\x00\x00\x00\x00\x00\x00\x00\x00\xd4\xb3\xf6$Q\x0b\x16@S\x07|\xde^\x81\x02\xc0\xbd|,\x83\xea^\x16@\xc3\xe8\xcdZ\xf0=\xec?\xac./R\x1a\xdb\x8b\xbfO\x8d\xe9\xd5\x0c\x0b\x8b\xbf\x98\xf9\xd9\x9dl\x0b\xf0?\x02q\t\xa9\xd8)\x03\xc0\x8c\xbav\x8aOO\xf6\xbfH\x98\t\xc6Q^\xc8\xbf\xcb\x1c/\xedA-\xd1?\xd8_\x02N\xca\xb1\xf8\xbf\x057\x9e\xc7\xe7\x0f\x01\xc0\xc6<\xa0\x13|\x99\xf0\xbf\x8c\xf1hF\xe8W\xed?KMq\x8e\xb7\x1e\xd1\xbf'
tbsS'intercept_'
p43
g22
(g23
(I0
tS'b'
tRp44
(I1
(I1
tg42
I00
S'\xbf\xe09\xf8\x00f\x0b\xc0'
tbsS'max_iter'
p45
I100
sS'class_weight'
p46
NsbsS'c_dir'
p47
S'/home/nda/Workspace/Topica/pipy/vnspliter'
p48
sS'feature_model'
p49
(ivnspliter.feature.feature
Feature
p50
(dp51
S'NONE_SPLITER_DICT'
p52
(dp53
VA
I102
sV10
p54
I112
sVCN
p55
I119
sV11
p56
I113
sVtr
p57
I120
sVV
I118
sVM
I101
sVII
p58
I115
sVIV
p59
I117
sV1
I103
sVI
I114
sV3
I105
sV2
I104
sVU
I100
sV4
I106
sV7
I109
sV6
I108
sV9
I111
sV5
I107
sVIII
p60
I116
sV8
I110
ssS'NONE_SPILTER_REGEXES'
p61
(lp62
g4
(V[\u005cdIV]+.\u005cs[A-Z]\u005cw+
p63
I32
tRp64
ag4
(V[A-Z]{1,2}\u005c.\u005cs?[A-Z]{1,2}\u005c.?
p65
I32
tRp66
asS'is_name_re'
p67
g4
(S'[A-Z]{1,2}\\.'
p68
I0
tRp69
sbsb.